; Function Attrs: mustprogress uwtable
define hidden void @_ZN3smt17theory_array_full18add_parent_defaultEi(ptr noundef nonnull align 8 dereferenceable(608) %this, i32 noundef %v) local_unnamed_addr #3 align 2 {
entry:
  %m_find.i.i = getelementptr inbounds i8, ptr %this, i64 344
  %0 = load ptr, ptr %m_find.i.i, align 8
  br label %while.body.i.i

while.body.i.i:                                   ; preds = %while.body.i.i, %entry
  %v.addr.0.i.i = phi i32 [ %v, %entry ], [ %1, %while.body.i.i ]
  %idxprom.i.i.i = zext i32 %v.addr.0.i.i to i64
  %arrayidx.i.i.i = getelementptr inbounds i32, ptr %0, i64 %idxprom.i.i.i
  %1 = load i32, ptr %arrayidx.i.i.i, align 4
  %cmp.i.i = icmp eq i32 %1, %v.addr.0.i.i
  br i1 %cmp.i.i, label %_ZNK3smt12theory_array4findEi.exit, label %while.body.i.i, !llvm.loop !9

_ZNK3smt12theory_array4findEi.exit:               ; preds = %while.body.i.i
  %m_var_data = getelementptr inbounds i8, ptr %this, i64 256
  %2 = load ptr, ptr %m_var_data, align 8
  %arrayidx.i = getelementptr inbounds ptr, ptr %2, i64 %idxprom.i.i.i
  %3 = load ptr, ptr %arrayidx.i, align 8
  %4 = load ptr, ptr %3, align 8
  %cmp.i.i7 = icmp eq ptr %4, null
  br i1 %cmp.i.i7, label %for.end, label %_ZN6vectorIPN3smt5enodeELb0EjE3endEv.exit

_ZN6vectorIPN3smt5enodeELb0EjE3endEv.exit:        ; preds = %_ZNK3smt12theory_array4findEi.exit
  %arrayidx.i.i = getelementptr inbounds i8, ptr %4, i64 -4
  %5 = load i32, ptr %arrayidx.i.i, align 4
  %6 = zext i32 %5 to i64
  %add.ptr.i = getelementptr inbounds ptr, ptr %4, i64 %6
  %cmp.not12 = icmp eq i32 %5, 0
  br i1 %cmp.not12, label %for.end, label %for.body

for.body:                                         ; preds = %_ZN6vectorIPN3smt5enodeELb0EjE3endEv.exit, %for.body
  %__begin1.013 = phi ptr [ %incdec.ptr, %for.body ], [ %4, %_ZN6vectorIPN3smt5enodeELb0EjE3endEv.exit ]
  %7 = load ptr, ptr %__begin1.013, align 8
  %call5 = tail call noundef zeroext i1 @_ZN3smt17theory_array_full31instantiate_default_store_axiomEPNS_5enodeE(ptr noundef nonnull align 8 dereferenceable(608) %this, ptr noundef %7)
  %incdec.ptr = getelementptr inbounds i8, ptr %__begin1.013, i64 8
  %cmp.not = icmp eq ptr %incdec.ptr, %add.ptr.i
  br i1 %cmp.not, label %for.end, label %for.body

for.end:                                          ; preds = %for.body, %_ZNK3smt12theory_array4findEi.exit, %_ZN6vectorIPN3smt5enodeELb0EjE3endEv.exit
  %m_params = getelementptr inbounds i8, ptr %this, i64 264
  %8 = load ptr, ptr %m_params, align 8
  %m_array_delay_exp_axiom = getelementptr inbounds i8, ptr %8, i64 16
  %9 = load i8, ptr %m_array_delay_exp_axiom, align 4
  %10 = and i8 %9, 1
  %tobool.not = icmp eq i8 %10, 0
  br i1 %tobool.not, label %land.lhs.true, label %if.end

land.lhs.true:                                    ; preds = %for.end
  %m_prop_upward = getelementptr inbounds i8, ptr %3, i64 24
  %11 = load i8, ptr %m_prop_upward, align 8
  %12 = and i8 %11, 1
  %tobool6.not = icmp eq i8 %12, 0
  br i1 %tobool6.not, label %if.end, label %if.then

if.then:                                          ; preds = %land.lhs.true
  %13 = load ptr, ptr %m_find.i.i, align 8
  br label %while.body.i.i.i

while.body.i.i.i:                                 ; preds = %while.body.i.i.i, %if.then
  %v.addr.0.i.i.i = phi i32 [ %v.addr.0.i.i, %if.then ], [ %14, %while.body.i.i.i ]
  %idxprom.i.i.i.i = zext i32 %v.addr.0.i.i.i to i64
  %arrayidx.i.i.i.i = getelementptr inbounds i32, ptr %13, i64 %idxprom.i.i.i.i
  %14 = load i32, ptr %arrayidx.i.i.i.i, align 4
  %cmp.i.i.i = icmp eq i32 %14, %v.addr.0.i.i.i
  br i1 %cmp.i.i.i, label %_ZNK3smt12theory_array4findEi.exit.i, label %while.body.i.i.i, !llvm.loop !9

_ZNK3smt12theory_array4findEi.exit.i:             ; preds = %while.body.i.i.i
  %15 = load ptr, ptr %m_var_data, align 8
  %arrayidx.i.i8 = getelementptr inbounds ptr, ptr %15, i64 %idxprom.i.i.i.i
  %16 = load ptr, ptr %arrayidx.i.i8, align 8
  %m_parent_stores.i = getelementptr inbounds i8, ptr %16, i64 16
  br label %for.cond.i

for.cond.i:                                       ; preds = %for.inc.i, %_ZNK3smt12theory_array4findEi.exit.i
  %indvars.iv.i = phi i64 [ %indvars.iv.next.i, %for.inc.i ], [ 0, %_ZNK3smt12theory_array4findEi.exit.i ]
  %17 = load ptr, ptr %m_parent_stores.i, align 8
  %cmp.i.i9 = icmp eq ptr %17, null
  br i1 %cmp.i.i9, label %_ZNK6vectorIPN3smt5enodeELb0EjE4sizeEv.exit.i, label %if.end.i.i10

if.end.i.i10:                                     ; preds = %for.cond.i
  %arrayidx.i6.i = getelementptr inbounds i8, ptr %17, i64 -4
  %18 = load i32, ptr %arrayidx.i6.i, align 4
  br label %_ZNK6vectorIPN3smt5enodeELb0EjE4sizeEv.exit.i

_ZNK6vectorIPN3smt5enodeELb0EjE4sizeEv.exit.i:    ; preds = %if.end.i.i10, %for.cond.i
  %retval.0.i.i11 = phi i32 [ %18, %if.end.i.i10 ], [ 0, %for.cond.i ]
  %19 = zext i32 %retval.0.i.i11 to i64
  %cmp.i = icmp ult i64 %indvars.iv.i, %19
  br i1 %cmp.i, label %for.body.i, label %if.end

for.body.i:                                       ; preds = %_ZNK6vectorIPN3smt5enodeELb0EjE4sizeEv.exit.i
  %arrayidx.i8.i = getelementptr inbounds ptr, ptr %17, i64 %indvars.iv.i
  %20 = load ptr, ptr %arrayidx.i8.i, align 8
  %21 = load ptr, ptr %m_params, align 8
  %m_array_cg.i = getelementptr inbounds i8, ptr %21, i64 17
  %22 = load i8, ptr %m_array_cg.i, align 1
  %23 = and i8 %22, 1
  %tobool.not.i = icmp eq i8 %23, 0
  br i1 %tobool.not.i, label %land.lhs.true.i, label %lor.lhs.false.i

lor.lhs.false.i:                                  ; preds = %for.body.i
  %m_cg.i.i = getelementptr inbounds i8, ptr %20, i64 24
  %24 = load ptr, ptr %m_cg.i.i, align 8
  %cmp.i9.i = icmp eq ptr %24, %20
  br i1 %cmp.i9.i, label %land.lhs.true.i, label %for.inc.i

land.lhs.true.i:                                  ; preds = %lor.lhs.false.i, %for.body.i
  %call7.i = tail call noundef zeroext i1 @_ZN3smt17theory_array_full31instantiate_default_store_axiomEPNS_5enodeE(ptr noundef nonnull align 8 dereferenceable(608) %this, ptr noundef %20)
  br label %for.inc.i

for.inc.i:                                        ; preds = %land.lhs.true.i, %lor.lhs.false.i
  %indvars.iv.next.i = add nuw nsw i64 %indvars.iv.i, 1
  br label %for.cond.i, !llvm.loop !27

if.end:                                           ; preds = %_ZNK6vectorIPN3smt5enodeELb0EjE4sizeEv.exit.i, %land.lhs.true, %for.end
  ret void
}